target datalayout = "e-m:e-p270:32:32-p271:32:32-p272:64:64-i64:64-i128:128-f80:128-n8:16:32:64-S128"
target triple = "x86_64-pc-linux-gnu"

%"struct.cv::optflow::GPCPatchDescriptor" = type { %"class.cv::Vec" }
%"class.cv::Vec" = type { %"class.cv::Matx" }
%"class.cv::Matx" = type { [18 x double] }
%"class.cv::optflow::GPCTree" = type { %"class.cv::Algorithm", %"class.std::vector.3", %"struct.cv::optflow::GPCTrainingParams" }
%"class.cv::Algorithm" = type { ptr }
%"class.std::vector.3" = type { %"struct.std::_Vector_base.4" }
%"struct.std::_Vector_base.4" = type { %"struct.std::_Vector_base<cv::optflow::GPCTree::Node, std::allocator<cv::optflow::GPCTree::Node>>::_Vector_impl" }
%"struct.std::_Vector_base<cv::optflow::GPCTree::Node, std::allocator<cv::optflow::GPCTree::Node>>::_Vector_impl" = type { %"struct.std::_Vector_base<cv::optflow::GPCTree::Node, std::allocator<cv::optflow::GPCTree::Node>>::_Vector_impl_data" }
%"struct.std::_Vector_base<cv::optflow::GPCTree::Node, std::allocator<cv::optflow::GPCTree::Node>>::_Vector_impl_data" = type { ptr, ptr, ptr }
%"struct.cv::optflow::GPCTrainingParams" = type <{ i32, i32, i32, i8, [3 x i8] }>
%"struct.cv::optflow::GPCTree::Node" = type { %"class.cv::Vec", double, i32, i32 }

; Function Attrs: inlinehint mustprogress nounwind uwtable
define linkonce_odr hidden noundef double @_ZNK2cv4MatxIdLi18ELi1EE3dotERKS1_(ptr noundef nonnull align 8 dereferenceable(144) %0, ptr noundef nonnull align 8 dereferenceable(144) %1) #1 comdat align 2 {
  %3 = alloca ptr, align 8
  %4 = alloca ptr, align 8
  %5 = alloca double, align 8
  %6 = alloca i32, align 4
  store ptr %0, ptr %3, align 8, !tbaa !15
  store ptr %1, ptr %4, align 8, !tbaa !15
  %7 = load ptr, ptr %3, align 8
  call void @llvm.lifetime.start.p0(i64 8, ptr %5) #22
  store double 0.000000e+00, ptr %5, align 8, !tbaa !17
  call void @llvm.lifetime.start.p0(i64 4, ptr %6) #22
  store i32 0, ptr %6, align 4, !tbaa !19
  br label %8

8:                                                ; preds = %26, %2
  %9 = load i32, ptr %6, align 4, !tbaa !19
  %10 = icmp slt i32 %9, 18
  br i1 %10, label %12, label %11

11:                                               ; preds = %8
  call void @llvm.lifetime.end.p0(i64 4, ptr %6) #22
  br label %29

12:                                               ; preds = %8
  %13 = getelementptr inbounds nuw %"class.cv::Matx", ptr %7, i32 0, i32 0
  %14 = load i32, ptr %6, align 4, !tbaa !19
  %15 = sext i32 %14 to i64
  %16 = getelementptr inbounds [18 x double], ptr %13, i64 0, i64 %15
  %17 = load double, ptr %16, align 8, !tbaa !17
  %18 = load ptr, ptr %4, align 8, !tbaa !15
  %19 = getelementptr inbounds nuw %"class.cv::Matx", ptr %18, i32 0, i32 0
  %20 = load i32, ptr %6, align 4, !tbaa !19
  %21 = sext i32 %20 to i64
  %22 = getelementptr inbounds [18 x double], ptr %19, i64 0, i64 %21
  %23 = load double, ptr %22, align 8, !tbaa !17
  %24 = load double, ptr %5, align 8, !tbaa !17
  %25 = call double @llvm.fmuladd.f64(double %17, double %23, double %24)
  store double %25, ptr %5, align 8, !tbaa !17
  br label %26

26:                                               ; preds = %12
  %27 = load i32, ptr %6, align 4, !tbaa !19
  %28 = add nsw i32 %27, 1
  store i32 %28, ptr %6, align 4, !tbaa !19
  br label %8, !llvm.loop !21

29:                                               ; preds = %11
  %30 = load double, ptr %5, align 8, !tbaa !17
  call void @llvm.lifetime.end.p0(i64 8, ptr %5) #22
  ret double %30
}

; Function Attrs: mustprogress uwtable
define noundef double @_ZNK2cv7optflow18GPCPatchDescriptor3dotERKNS_3VecIdLi18EEE(ptr noundef nonnull align 8 dereferenceable(144) %0, ptr noundef nonnull align 8 dereferenceable(144) %1) #2 align 2 {
  %3 = alloca ptr, align 8
  %4 = alloca ptr, align 8
  store ptr %0, ptr %3, align 8, !tbaa !11
  store ptr %1, ptr %4, align 8, !tbaa !13
  %5 = load ptr, ptr %3, align 8
  %6 = getelementptr inbounds nuw %"struct.cv::optflow::GPCPatchDescriptor", ptr %5, i32 0, i32 0
  %7 = load ptr, ptr %4, align 8, !tbaa !13
  %8 = call noundef double @_ZNK2cv4MatxIdLi18ELi1EE3dotERKS1_(ptr noundef nonnull align 8 dereferenceable(144) %6, ptr noundef nonnull align 8 dereferenceable(144) %7)
  ret double %8
}

; Function Attrs: mustprogress nounwind uwtable
define linkonce_odr hidden noundef nonnull align 8 dereferenceable(160) ptr @_ZNKSt6vectorIN2cv7optflow7GPCTree4NodeESaIS3_EEixEm(ptr noundef nonnull align 8 dereferenceable(24) %0, i64 noundef %1) #5 comdat align 2 {
  %3 = alloca ptr, align 8
  %4 = alloca i64, align 8
  store ptr %0, ptr %3, align 8, !tbaa !76
  store i64 %1, ptr %4, align 8, !tbaa !46
  %5 = load ptr, ptr %3, align 8
  %6 = getelementptr inbounds nuw %"struct.std::_Vector_base.4", ptr %5, i32 0, i32 0
  %7 = getelementptr inbounds nuw %"struct.std::_Vector_base<cv::optflow::GPCTree::Node, std::allocator<cv::optflow::GPCTree::Node>>::_Vector_impl_data", ptr %6, i32 0, i32 0
  %8 = load ptr, ptr %7, align 8, !tbaa !79
  %9 = load i64, ptr %4, align 8, !tbaa !46
  %10 = getelementptr inbounds nuw %"struct.cv::optflow::GPCTree::Node", ptr %8, i64 %9
  ret ptr %10
}

; Function Attrs: mustprogress uwtable
define noundef i32 @_ZNK2cv7optflow7GPCTree16findLeafForPatchERKNS0_18GPCPatchDescriptorE(ptr noundef nonnull align 8 dereferenceable(48) %0, ptr noundef nonnull align 8 dereferenceable(144) %1) #2 align 2 {
  %3 = alloca ptr, align 8
  %4 = alloca ptr, align 8
  %5 = alloca i32, align 4
  %6 = alloca i32, align 4
  store ptr %0, ptr %3, align 8, !tbaa !49
  store ptr %1, ptr %4, align 8, !tbaa !11
  %7 = load ptr, ptr %3, align 8
  call void @llvm.lifetime.start.p0(i64 4, ptr %5) #22
  store i32 0, ptr %5, align 4, !tbaa !19
  call void @llvm.lifetime.start.p0(i64 4, ptr %6) #22
  br label %8

8:                                                ; preds = %39, %2
  %9 = load i32, ptr %5, align 4, !tbaa !19
  store i32 %9, ptr %6, align 4, !tbaa !19
  %10 = load ptr, ptr %4, align 8, !tbaa !11
  %11 = getelementptr inbounds nuw %"class.cv::optflow::GPCTree", ptr %7, i32 0, i32 1
  %12 = load i32, ptr %5, align 4, !tbaa !19
  %13 = zext i32 %12 to i64
  %14 = call noundef nonnull align 8 dereferenceable(160) ptr @_ZNKSt6vectorIN2cv7optflow7GPCTree4NodeESaIS3_EEixEm(ptr noundef nonnull align 8 dereferenceable(24) %11, i64 noundef %13) #22
  %15 = getelementptr inbounds nuw %"struct.cv::optflow::GPCTree::Node", ptr %14, i32 0, i32 0
  %16 = call noundef double @_ZNK2cv7optflow18GPCPatchDescriptor3dotERKNS_3VecIdLi18EEE(ptr noundef nonnull align 8 dereferenceable(144) %10, ptr noundef nonnull align 8 dereferenceable(144) %15)
  %17 = getelementptr inbounds nuw %"class.cv::optflow::GPCTree", ptr %7, i32 0, i32 1
  %18 = load i32, ptr %5, align 4, !tbaa !19
  %19 = zext i32 %18 to i64
  %20 = call noundef nonnull align 8 dereferenceable(160) ptr @_ZNKSt6vectorIN2cv7optflow7GPCTree4NodeESaIS3_EEixEm(ptr noundef nonnull align 8 dereferenceable(24) %17, i64 noundef %19) #22
  %21 = getelementptr inbounds nuw %"struct.cv::optflow::GPCTree::Node", ptr %20, i32 0, i32 1
  %22 = load double, ptr %21, align 8, !tbaa !65
  %23 = fcmp olt double %16, %22
  br i1 %23, label %24, label %31

24:                                               ; preds = %8
  %25 = getelementptr inbounds nuw %"class.cv::optflow::GPCTree", ptr %7, i32 0, i32 1
  %26 = load i32, ptr %5, align 4, !tbaa !19
  %27 = zext i32 %26 to i64
  %28 = call noundef nonnull align 8 dereferenceable(160) ptr @_ZNKSt6vectorIN2cv7optflow7GPCTree4NodeESaIS3_EEixEm(ptr noundef nonnull align 8 dereferenceable(24) %25, i64 noundef %27) #22
  %29 = getelementptr inbounds nuw %"struct.cv::optflow::GPCTree::Node", ptr %28, i32 0, i32 3
  %30 = load i32, ptr %29, align 4, !tbaa !75
  store i32 %30, ptr %5, align 4, !tbaa !19
  br label %38

31:                                               ; preds = %8
  %32 = getelementptr inbounds nuw %"class.cv::optflow::GPCTree", ptr %7, i32 0, i32 1
  %33 = load i32, ptr %5, align 4, !tbaa !19
  %34 = zext i32 %33 to i64
  %35 = call noundef nonnull align 8 dereferenceable(160) ptr @_ZNKSt6vectorIN2cv7optflow7GPCTree4NodeESaIS3_EEixEm(ptr noundef nonnull align 8 dereferenceable(24) %32, i64 noundef %34) #22
  %36 = getelementptr inbounds nuw %"struct.cv::optflow::GPCTree::Node", ptr %35, i32 0, i32 2
  %37 = load i32, ptr %36, align 8, !tbaa !74
  store i32 %37, ptr %5, align 4, !tbaa !19
  br label %38

38:                                               ; preds = %31, %24
  br label %39

39:                                               ; preds = %38
  %40 = load i32, ptr %5, align 4, !tbaa !19
  %41 = icmp ne i32 %40, 0
  br i1 %41, label %8, label %42, !llvm.loop !143

42:                                               ; preds = %39
  %43 = load i32, ptr %6, align 4, !tbaa !19
  call void @llvm.lifetime.end.p0(i64 4, ptr %6) #22
  call void @llvm.lifetime.end.p0(i64 4, ptr %5) #22
  ret i32 %43
}