; Function Attrs: mustprogress nofree norecurse nosync nounwind willreturn memory(read, inaccessiblemem: none) uwtable
define noundef i32 @_ZNK2cv7optflow7GPCTree16findLeafForPatchERKNS0_18GPCPatchDescriptorE(ptr noundef nonnull readonly align 8 captures(none) dereferenceable(48) %0, ptr noundef nonnull readonly align 8 captures(none) dereferenceable(144) %1) local_unnamed_addr #11 align 2 {
  %3 = getelementptr inbounds nuw i8, ptr %0, i64 8
  %4 = load ptr, ptr %3, align 8, !tbaa !60
  br label %5

5:                                                ; preds = %_ZNK2cv7optflow18GPCPatchDescriptor3dotERKNS_3VecIdLi18EEE.exit, %2
  %.0 = phi i32 [ 0, %2 ], [ %.1, %_ZNK2cv7optflow18GPCPatchDescriptor3dotERKNS_3VecIdLi18EEE.exit ]
  %6 = zext i32 %.0 to i64
  %7 = getelementptr inbounds nuw %"struct.cv::optflow::GPCTree::Node", ptr %4, i64 %6
  br label %8

8:                                                ; preds = %8, %5
  %indvars.iv.i.i = phi i64 [ 0, %5 ], [ %indvars.iv.next.i.i, %8 ]
  %.078.i.i = phi double [ 0.000000e+00, %5 ], [ %13, %8 ]
  %9 = getelementptr inbounds nuw [18 x double], ptr %1, i64 0, i64 %indvars.iv.i.i
  %10 = load double, ptr %9, align 8, !tbaa !3
  %11 = getelementptr inbounds nuw [18 x double], ptr %7, i64 0, i64 %indvars.iv.i.i
  %12 = load double, ptr %11, align 8, !tbaa !3
  %13 = tail call double @llvm.fmuladd.f64(double %10, double %12, double %.078.i.i)
  %indvars.iv.next.i.i = add nuw nsw i64 %indvars.iv.i.i, 1
  %exitcond.not.i.i = icmp eq i64 %indvars.iv.next.i.i, 18
  br i1 %exitcond.not.i.i, label %_ZNK2cv7optflow18GPCPatchDescriptor3dotERKNS_3VecIdLi18EEE.exit, label %8, !llvm.loop !7

_ZNK2cv7optflow18GPCPatchDescriptor3dotERKNS_3VecIdLi18EEE.exit: ; preds = %8
  %14 = getelementptr inbounds nuw i8, ptr %7, i64 144
  %15 = load double, ptr %14, align 8, !tbaa !74
  %16 = fcmp olt double %13, %15
  %.1.in.v = select i1 %16, i64 156, i64 152
  %.1.in = getelementptr inbounds nuw i8, ptr %7, i64 %.1.in.v
  %.1 = load i32, ptr %.1.in, align 4, !tbaa !23
  %.not = icmp eq i32 %.1, 0
  br i1 %.not, label %17, label %5, !llvm.loop !121

17:                                               ; preds = %_ZNK2cv7optflow18GPCPatchDescriptor3dotERKNS_3VecIdLi18EEE.exit
  ret i32 %.0
}